target datalayout = "e-m:e-p270:32:32-p271:32:32-p272:64:64-i64:64-i128:128-f80:128-n8:16:32:64-S128"
target triple = "x86_64-pc-linux-gnu"

@album_peak_ = internal global double 0.000000e+00, align 8
@title_peak_ = internal global double 0.000000e+00, align 8

; Function Attrs: nounwind sspstrong uwtable
define dso_local i32 @grabbag__replaygain_init(i32 noundef %0) #0 {
  %2 = alloca i32, align 4
  store i32 %0, ptr %2, align 4, !tbaa !4
  store double 0.000000e+00, ptr @album_peak_, align 8, !tbaa !8
  store double 0.000000e+00, ptr @title_peak_, align 8, !tbaa !8
  %3 = load i32, ptr %2, align 4, !tbaa !4
  %4 = zext i32 %3 to i64
  %5 = call i32 @InitGainAnalysis(i64 noundef %4)
  %6 = icmp eq i32 %5, 1
  %7 = zext i1 %6 to i32
  ret i32 %7
}