; Function Attrs: nounwind sspstrong uwtable
define dso_local range(i32 0, 2) i32 @grabbag__replaygain_init(i32 noundef %0) local_unnamed_addr #0 {
  store double 0.000000e+00, ptr @album_peak_, align 8, !tbaa !4
  store double 0.000000e+00, ptr @title_peak_, align 8, !tbaa !4
  %2 = zext i32 %0 to i64
  %3 = tail call i32 @InitGainAnalysis(i64 noundef %2) #14
  %4 = icmp eq i32 %3, 1
  %5 = zext i1 %4 to i32
  ret i32 %5
}